; Function Attrs: mustprogress nofree norecurse nosync nounwind willreturn memory(readwrite, inaccessiblemem: none) uwtable
define dso_local noundef range(i32 0, 2) i32 @_Z14lua_isuserdataP9lua_Statei(ptr noundef readonly captures(none) %0, i32 noundef %1) local_unnamed_addr #0 {
  %3 = icmp sgt i32 %1, 0
  br i1 %3, label %4, label %12

4:                                                ; preds = %2
  %5 = getelementptr inbounds nuw i8, ptr %0, i64 16
  %6 = load ptr, ptr %5, align 8, !tbaa !4
  %7 = zext nneg i32 %1 to i64
  %8 = getelementptr %struct.lua_TValue, ptr %6, i64 %7
  %9 = getelementptr i8, ptr %8, i64 -16
  %10 = getelementptr inbounds nuw i8, ptr %0, i64 8
  %11 = load ptr, ptr %10, align 8, !tbaa !19
  %.not.i = icmp ult ptr %9, %11
  %.luaO_nilobject_.i = select i1 %.not.i, ptr %9, ptr @luaO_nilobject_
  br label %_ZL10index2addrP9lua_Statei.exit

12:                                               ; preds = %2
  %13 = icmp sgt i32 %1, -10000
  br i1 %13, label %14, label %19

14:                                               ; preds = %12
  %15 = getelementptr inbounds nuw i8, ptr %0, i64 8
  %16 = load ptr, ptr %15, align 8, !tbaa !19
  %17 = sext i32 %1 to i64
  %18 = getelementptr inbounds %struct.lua_TValue, ptr %16, i64 %17
  br label %_ZL10index2addrP9lua_Statei.exit

19:                                               ; preds = %12
  %20 = tail call fastcc noundef ptr @_ZL11pseudo2addrP9lua_Statei(ptr noundef %0, i32 noundef %1)
  br label %_ZL10index2addrP9lua_Statei.exit

_ZL10index2addrP9lua_Statei.exit:                 ; preds = %4, %14, %19
  %.1.i = phi ptr [ %.luaO_nilobject_.i, %4 ], [ %18, %14 ], [ %20, %19 ]
  %21 = getelementptr inbounds nuw i8, ptr %.1.i, i64 12
  %22 = load i32, ptr %21, align 4, !tbaa !47
  %23 = icmp eq i32 %22, 8
  %24 = icmp eq i32 %22, 2
  %narrow = or i1 %23, %24
  %25 = zext i1 %narrow to i32
  ret i32 %25
}